target datalayout = "e-m:e-p270:32:32-p271:32:32-p272:64:64-i64:64-i128:128-f80:128-n8:16:32:64-S128"
target triple = "x86_64-pc-linux-gnu"

; Function Attrs: inlinehint nounwind uwtable
define internal void @idctSparseCol_int16_10bit(ptr noundef %0) #2 {
  %2 = alloca ptr, align 8
  %3 = alloca i32, align 4
  %4 = alloca i32, align 4
  %5 = alloca i32, align 4
  %6 = alloca i32, align 4
  %7 = alloca i32, align 4
  %8 = alloca i32, align 4
  %9 = alloca i32, align 4
  %10 = alloca i32, align 4
  store ptr %0, ptr %2, align 8, !tbaa !11
  call void @llvm.lifetime.start.p0(i64 4, ptr %3) #4
  call void @llvm.lifetime.start.p0(i64 4, ptr %4) #4
  call void @llvm.lifetime.start.p0(i64 4, ptr %5) #4
  call void @llvm.lifetime.start.p0(i64 4, ptr %6) #4
  call void @llvm.lifetime.start.p0(i64 4, ptr %7) #4
  call void @llvm.lifetime.start.p0(i64 4, ptr %8) #4
  call void @llvm.lifetime.start.p0(i64 4, ptr %9) #4
  call void @llvm.lifetime.start.p0(i64 4, ptr %10) #4
  br label %11

11:                                               ; preds = %1
  %12 = load ptr, ptr %2, align 8, !tbaa !11
  %13 = getelementptr inbounds i16, ptr %12, i64 0
  %14 = load i16, ptr %13, align 2, !tbaa !19
  %15 = sext i16 %14 to i32
  %16 = add nsw i32 %15, 16
  %17 = mul i32 16384, %16
  store i32 %17, ptr %3, align 4, !tbaa !13
  %18 = load i32, ptr %3, align 4, !tbaa !13
  store i32 %18, ptr %4, align 4, !tbaa !13
  %19 = load i32, ptr %3, align 4, !tbaa !13
  store i32 %19, ptr %5, align 4, !tbaa !13
  %20 = load i32, ptr %3, align 4, !tbaa !13
  store i32 %20, ptr %6, align 4, !tbaa !13
  %21 = load ptr, ptr %2, align 8, !tbaa !11
  %22 = getelementptr inbounds i16, ptr %21, i64 16
  %23 = load i16, ptr %22, align 2, !tbaa !19
  %24 = sext i16 %23 to i32
  %25 = mul i32 21407, %24
  %26 = load i32, ptr %3, align 4, !tbaa !13
  %27 = add i32 %26, %25
  store i32 %27, ptr %3, align 4, !tbaa !13
  %28 = load ptr, ptr %2, align 8, !tbaa !11
  %29 = getelementptr inbounds i16, ptr %28, i64 16
  %30 = load i16, ptr %29, align 2, !tbaa !19
  %31 = sext i16 %30 to i32
  %32 = mul i32 8867, %31
  %33 = load i32, ptr %4, align 4, !tbaa !13
  %34 = add i32 %33, %32
  store i32 %34, ptr %4, align 4, !tbaa !13
  %35 = load ptr, ptr %2, align 8, !tbaa !11
  %36 = getelementptr inbounds i16, ptr %35, i64 16
  %37 = load i16, ptr %36, align 2, !tbaa !19
  %38 = sext i16 %37 to i32
  %39 = mul i32 -8867, %38
  %40 = load i32, ptr %5, align 4, !tbaa !13
  %41 = add i32 %40, %39
  store i32 %41, ptr %5, align 4, !tbaa !13
  %42 = load ptr, ptr %2, align 8, !tbaa !11
  %43 = getelementptr inbounds i16, ptr %42, i64 16
  %44 = load i16, ptr %43, align 2, !tbaa !19
  %45 = sext i16 %44 to i32
  %46 = mul i32 -21407, %45
  %47 = load i32, ptr %6, align 4, !tbaa !13
  %48 = add i32 %47, %46
  store i32 %48, ptr %6, align 4, !tbaa !13
  %49 = load ptr, ptr %2, align 8, !tbaa !11
  %50 = getelementptr inbounds i16, ptr %49, i64 8
  %51 = load i16, ptr %50, align 2, !tbaa !19
  %52 = sext i16 %51 to i32
  %53 = mul i32 22725, %52
  store i32 %53, ptr %7, align 4, !tbaa !13
  %54 = load ptr, ptr %2, align 8, !tbaa !11
  %55 = getelementptr inbounds i16, ptr %54, i64 8
  %56 = load i16, ptr %55, align 2, !tbaa !19
  %57 = sext i16 %56 to i32
  %58 = mul i32 19265, %57
  store i32 %58, ptr %8, align 4, !tbaa !13
  %59 = load ptr, ptr %2, align 8, !tbaa !11
  %60 = getelementptr inbounds i16, ptr %59, i64 8
  %61 = load i16, ptr %60, align 2, !tbaa !19
  %62 = sext i16 %61 to i32
  %63 = mul i32 12873, %62
  store i32 %63, ptr %9, align 4, !tbaa !13
  %64 = load ptr, ptr %2, align 8, !tbaa !11
  %65 = getelementptr inbounds i16, ptr %64, i64 8
  %66 = load i16, ptr %65, align 2, !tbaa !19
  %67 = sext i16 %66 to i32
  %68 = mul i32 4520, %67
  store i32 %68, ptr %10, align 4, !tbaa !13
  %69 = load ptr, ptr %2, align 8, !tbaa !11
  %70 = getelementptr inbounds i16, ptr %69, i64 24
  %71 = load i16, ptr %70, align 2, !tbaa !19
  %72 = sext i16 %71 to i32
  %73 = mul i32 19265, %72
  %74 = load i32, ptr %7, align 4, !tbaa !13
  %75 = add i32 %74, %73
  store i32 %75, ptr %7, align 4, !tbaa !13
  %76 = load ptr, ptr %2, align 8, !tbaa !11
  %77 = getelementptr inbounds i16, ptr %76, i64 24
  %78 = load i16, ptr %77, align 2, !tbaa !19
  %79 = sext i16 %78 to i32
  %80 = mul i32 -4520, %79
  %81 = load i32, ptr %8, align 4, !tbaa !13
  %82 = add i32 %81, %80
  store i32 %82, ptr %8, align 4, !tbaa !13
  %83 = load ptr, ptr %2, align 8, !tbaa !11
  %84 = getelementptr inbounds i16, ptr %83, i64 24
  %85 = load i16, ptr %84, align 2, !tbaa !19
  %86 = sext i16 %85 to i32
  %87 = mul i32 -22725, %86
  %88 = load i32, ptr %9, align 4, !tbaa !13
  %89 = add i32 %88, %87
  store i32 %89, ptr %9, align 4, !tbaa !13
  %90 = load ptr, ptr %2, align 8, !tbaa !11
  %91 = getelementptr inbounds i16, ptr %90, i64 24
  %92 = load i16, ptr %91, align 2, !tbaa !19
  %93 = sext i16 %92 to i32
  %94 = mul i32 -12873, %93
  %95 = load i32, ptr %10, align 4, !tbaa !13
  %96 = add i32 %95, %94
  store i32 %96, ptr %10, align 4, !tbaa !13
  %97 = load ptr, ptr %2, align 8, !tbaa !11
  %98 = getelementptr inbounds i16, ptr %97, i64 32
  %99 = load i16, ptr %98, align 2, !tbaa !19
  %100 = icmp ne i16 %99, 0
  br i1 %100, label %101, label %130

101:                                              ; preds = %11
  %102 = load ptr, ptr %2, align 8, !tbaa !11
  %103 = getelementptr inbounds i16, ptr %102, i64 32
  %104 = load i16, ptr %103, align 2, !tbaa !19
  %105 = sext i16 %104 to i32
  %106 = mul i32 16384, %105
  %107 = load i32, ptr %3, align 4, !tbaa !13
  %108 = add i32 %107, %106
  store i32 %108, ptr %3, align 4, !tbaa !13
  %109 = load ptr, ptr %2, align 8, !tbaa !11
  %110 = getelementptr inbounds i16, ptr %109, i64 32
  %111 = load i16, ptr %110, align 2, !tbaa !19
  %112 = sext i16 %111 to i32
  %113 = mul i32 -16384, %112
  %114 = load i32, ptr %4, align 4, !tbaa !13
  %115 = add i32 %114, %113
  store i32 %115, ptr %4, align 4, !tbaa !13
  %116 = load ptr, ptr %2, align 8, !tbaa !11
  %117 = getelementptr inbounds i16, ptr %116, i64 32
  %118 = load i16, ptr %117, align 2, !tbaa !19
  %119 = sext i16 %118 to i32
  %120 = mul i32 -16384, %119
  %121 = load i32, ptr %5, align 4, !tbaa !13
  %122 = add i32 %121, %120
  store i32 %122, ptr %5, align 4, !tbaa !13
  %123 = load ptr, ptr %2, align 8, !tbaa !11
  %124 = getelementptr inbounds i16, ptr %123, i64 32
  %125 = load i16, ptr %124, align 2, !tbaa !19
  %126 = sext i16 %125 to i32
  %127 = mul i32 16384, %126
  %128 = load i32, ptr %6, align 4, !tbaa !13
  %129 = add i32 %128, %127
  store i32 %129, ptr %6, align 4, !tbaa !13
  br label %130

130:                                              ; preds = %101, %11
  %131 = load ptr, ptr %2, align 8, !tbaa !11
  %132 = getelementptr inbounds i16, ptr %131, i64 40
  %133 = load i16, ptr %132, align 2, !tbaa !19
  %134 = icmp ne i16 %133, 0
  br i1 %134, label %135, label %164

135:                                              ; preds = %130
  %136 = load ptr, ptr %2, align 8, !tbaa !11
  %137 = getelementptr inbounds i16, ptr %136, i64 40
  %138 = load i16, ptr %137, align 2, !tbaa !19
  %139 = sext i16 %138 to i32
  %140 = mul i32 12873, %139
  %141 = load i32, ptr %7, align 4, !tbaa !13
  %142 = add i32 %141, %140
  store i32 %142, ptr %7, align 4, !tbaa !13
  %143 = load ptr, ptr %2, align 8, !tbaa !11
  %144 = getelementptr inbounds i16, ptr %143, i64 40
  %145 = load i16, ptr %144, align 2, !tbaa !19
  %146 = sext i16 %145 to i32
  %147 = mul i32 -22725, %146
  %148 = load i32, ptr %8, align 4, !tbaa !13
  %149 = add i32 %148, %147
  store i32 %149, ptr %8, align 4, !tbaa !13
  %150 = load ptr, ptr %2, align 8, !tbaa !11
  %151 = getelementptr inbounds i16, ptr %150, i64 40
  %152 = load i16, ptr %151, align 2, !tbaa !19
  %153 = sext i16 %152 to i32
  %154 = mul i32 4520, %153
  %155 = load i32, ptr %9, align 4, !tbaa !13
  %156 = add i32 %155, %154
  store i32 %156, ptr %9, align 4, !tbaa !13
  %157 = load ptr, ptr %2, align 8, !tbaa !11
  %158 = getelementptr inbounds i16, ptr %157, i64 40
  %159 = load i16, ptr %158, align 2, !tbaa !19
  %160 = sext i16 %159 to i32
  %161 = mul i32 19265, %160
  %162 = load i32, ptr %10, align 4, !tbaa !13
  %163 = add i32 %162, %161
  store i32 %163, ptr %10, align 4, !tbaa !13
  br label %164

164:                                              ; preds = %135, %130
  %165 = load ptr, ptr %2, align 8, !tbaa !11
  %166 = getelementptr inbounds i16, ptr %165, i64 48
  %167 = load i16, ptr %166, align 2, !tbaa !19
  %168 = icmp ne i16 %167, 0
  br i1 %168, label %169, label %198

169:                                              ; preds = %164
  %170 = load ptr, ptr %2, align 8, !tbaa !11
  %171 = getelementptr inbounds i16, ptr %170, i64 48
  %172 = load i16, ptr %171, align 2, !tbaa !19
  %173 = sext i16 %172 to i32
  %174 = mul i32 8867, %173
  %175 = load i32, ptr %3, align 4, !tbaa !13
  %176 = add i32 %175, %174
  store i32 %176, ptr %3, align 4, !tbaa !13
  %177 = load ptr, ptr %2, align 8, !tbaa !11
  %178 = getelementptr inbounds i16, ptr %177, i64 48
  %179 = load i16, ptr %178, align 2, !tbaa !19
  %180 = sext i16 %179 to i32
  %181 = mul i32 -21407, %180
  %182 = load i32, ptr %4, align 4, !tbaa !13
  %183 = add i32 %182, %181
  store i32 %183, ptr %4, align 4, !tbaa !13
  %184 = load ptr, ptr %2, align 8, !tbaa !11
  %185 = getelementptr inbounds i16, ptr %184, i64 48
  %186 = load i16, ptr %185, align 2, !tbaa !19
  %187 = sext i16 %186 to i32
  %188 = mul i32 21407, %187
  %189 = load i32, ptr %5, align 4, !tbaa !13
  %190 = add i32 %189, %188
  store i32 %190, ptr %5, align 4, !tbaa !13
  %191 = load ptr, ptr %2, align 8, !tbaa !11
  %192 = getelementptr inbounds i16, ptr %191, i64 48
  %193 = load i16, ptr %192, align 2, !tbaa !19
  %194 = sext i16 %193 to i32
  %195 = mul i32 -8867, %194
  %196 = load i32, ptr %6, align 4, !tbaa !13
  %197 = add i32 %196, %195
  store i32 %197, ptr %6, align 4, !tbaa !13
  br label %198

198:                                              ; preds = %169, %164
  %199 = load ptr, ptr %2, align 8, !tbaa !11
  %200 = getelementptr inbounds i16, ptr %199, i64 56
  %201 = load i16, ptr %200, align 2, !tbaa !19
  %202 = icmp ne i16 %201, 0
  br i1 %202, label %203, label %232

203:                                              ; preds = %198
  %204 = load ptr, ptr %2, align 8, !tbaa !11
  %205 = getelementptr inbounds i16, ptr %204, i64 56
  %206 = load i16, ptr %205, align 2, !tbaa !19
  %207 = sext i16 %206 to i32
  %208 = mul i32 4520, %207
  %209 = load i32, ptr %7, align 4, !tbaa !13
  %210 = add i32 %209, %208
  store i32 %210, ptr %7, align 4, !tbaa !13
  %211 = load ptr, ptr %2, align 8, !tbaa !11
  %212 = getelementptr inbounds i16, ptr %211, i64 56
  %213 = load i16, ptr %212, align 2, !tbaa !19
  %214 = sext i16 %213 to i32
  %215 = mul i32 -12873, %214
  %216 = load i32, ptr %8, align 4, !tbaa !13
  %217 = add i32 %216, %215
  store i32 %217, ptr %8, align 4, !tbaa !13
  %218 = load ptr, ptr %2, align 8, !tbaa !11
  %219 = getelementptr inbounds i16, ptr %218, i64 56
  %220 = load i16, ptr %219, align 2, !tbaa !19
  %221 = sext i16 %220 to i32
  %222 = mul i32 19265, %221
  %223 = load i32, ptr %9, align 4, !tbaa !13
  %224 = add i32 %223, %222
  store i32 %224, ptr %9, align 4, !tbaa !13
  %225 = load ptr, ptr %2, align 8, !tbaa !11
  %226 = getelementptr inbounds i16, ptr %225, i64 56
  %227 = load i16, ptr %226, align 2, !tbaa !19
  %228 = sext i16 %227 to i32
  %229 = mul i32 -22725, %228
  %230 = load i32, ptr %10, align 4, !tbaa !13
  %231 = add i32 %230, %229
  store i32 %231, ptr %10, align 4, !tbaa !13
  br label %232

232:                                              ; preds = %203, %198
  br label %233

233:                                              ; preds = %232
  br label %234

234:                                              ; preds = %233
  %235 = load i32, ptr %3, align 4, !tbaa !13
  %236 = load i32, ptr %7, align 4, !tbaa !13
  %237 = add i32 %235, %236
  %238 = ashr i32 %237, 19
  %239 = trunc i32 %238 to i16
  %240 = load ptr, ptr %2, align 8, !tbaa !11
  %241 = getelementptr inbounds i16, ptr %240, i64 0
  store i16 %239, ptr %241, align 2, !tbaa !19
  %242 = load i32, ptr %4, align 4, !tbaa !13
  %243 = load i32, ptr %8, align 4, !tbaa !13
  %244 = add i32 %242, %243
  %245 = ashr i32 %244, 19
  %246 = trunc i32 %245 to i16
  %247 = load ptr, ptr %2, align 8, !tbaa !11
  %248 = getelementptr inbounds i16, ptr %247, i64 8
  store i16 %246, ptr %248, align 2, !tbaa !19
  %249 = load i32, ptr %5, align 4, !tbaa !13
  %250 = load i32, ptr %9, align 4, !tbaa !13
  %251 = add i32 %249, %250
  %252 = ashr i32 %251, 19
  %253 = trunc i32 %252 to i16
  %254 = load ptr, ptr %2, align 8, !tbaa !11
  %255 = getelementptr inbounds i16, ptr %254, i64 16
  store i16 %253, ptr %255, align 2, !tbaa !19
  %256 = load i32, ptr %6, align 4, !tbaa !13
  %257 = load i32, ptr %10, align 4, !tbaa !13
  %258 = add i32 %256, %257
  %259 = ashr i32 %258, 19
  %260 = trunc i32 %259 to i16
  %261 = load ptr, ptr %2, align 8, !tbaa !11
  %262 = getelementptr inbounds i16, ptr %261, i64 24
  store i16 %260, ptr %262, align 2, !tbaa !19
  %263 = load i32, ptr %6, align 4, !tbaa !13
  %264 = load i32, ptr %10, align 4, !tbaa !13
  %265 = sub i32 %263, %264
  %266 = ashr i32 %265, 19
  %267 = trunc i32 %266 to i16
  %268 = load ptr, ptr %2, align 8, !tbaa !11
  %269 = getelementptr inbounds i16, ptr %268, i64 32
  store i16 %267, ptr %269, align 2, !tbaa !19
  %270 = load i32, ptr %5, align 4, !tbaa !13
  %271 = load i32, ptr %9, align 4, !tbaa !13
  %272 = sub i32 %270, %271
  %273 = ashr i32 %272, 19
  %274 = trunc i32 %273 to i16
  %275 = load ptr, ptr %2, align 8, !tbaa !11
  %276 = getelementptr inbounds i16, ptr %275, i64 40
  store i16 %274, ptr %276, align 2, !tbaa !19
  %277 = load i32, ptr %4, align 4, !tbaa !13
  %278 = load i32, ptr %8, align 4, !tbaa !13
  %279 = sub i32 %277, %278
  %280 = ashr i32 %279, 19
  %281 = trunc i32 %280 to i16
  %282 = load ptr, ptr %2, align 8, !tbaa !11
  %283 = getelementptr inbounds i16, ptr %282, i64 48
  store i16 %281, ptr %283, align 2, !tbaa !19
  %284 = load i32, ptr %3, align 4, !tbaa !13
  %285 = load i32, ptr %7, align 4, !tbaa !13
  %286 = sub i32 %284, %285
  %287 = ashr i32 %286, 19
  %288 = trunc i32 %287 to i16
  %289 = load ptr, ptr %2, align 8, !tbaa !11
  %290 = getelementptr inbounds i16, ptr %289, i64 56
  store i16 %288, ptr %290, align 2, !tbaa !19
  call void @llvm.lifetime.end.p0(i64 4, ptr %10) #4
  call void @llvm.lifetime.end.p0(i64 4, ptr %9) #4
  call void @llvm.lifetime.end.p0(i64 4, ptr %8) #4
  call void @llvm.lifetime.end.p0(i64 4, ptr %7) #4
  call void @llvm.lifetime.end.p0(i64 4, ptr %6) #4
  call void @llvm.lifetime.end.p0(i64 4, ptr %5) #4
  call void @llvm.lifetime.end.p0(i64 4, ptr %4) #4
  call void @llvm.lifetime.end.p0(i64 4, ptr %3) #4
  ret void
}

; Function Attrs: nounwind uwtable
define void @ff_simple_idct_int16_10bit(ptr noundef %0) #0 {
  %2 = alloca ptr, align 8
  %3 = alloca i32, align 4
  store ptr %0, ptr %2, align 8, !tbaa !11
  call void @llvm.lifetime.start.p0(i64 4, ptr %3) #4
  store i32 0, ptr %3, align 4, !tbaa !13
  br label %4

4:                                                ; preds = %13, %1
  %5 = load i32, ptr %3, align 4, !tbaa !13
  %6 = icmp slt i32 %5, 8
  br i1 %6, label %7, label %16

7:                                                ; preds = %4
  %8 = load ptr, ptr %2, align 8, !tbaa !11
  %9 = load i32, ptr %3, align 4, !tbaa !13
  %10 = mul nsw i32 %9, 8
  %11 = sext i32 %10 to i64
  %12 = getelementptr inbounds i16, ptr %8, i64 %11
  call void @idctRowCondDC_int16_10bit(ptr noundef %12, i32 noundef 0)
  br label %13

13:                                               ; preds = %7
  %14 = load i32, ptr %3, align 4, !tbaa !13
  %15 = add nsw i32 %14, 1
  store i32 %15, ptr %3, align 4, !tbaa !13
  br label %4, !llvm.loop !29

16:                                               ; preds = %4
  store i32 0, ptr %3, align 4, !tbaa !13
  br label %17

17:                                               ; preds = %25, %16
  %18 = load i32, ptr %3, align 4, !tbaa !13
  %19 = icmp slt i32 %18, 8
  br i1 %19, label %20, label %28

20:                                               ; preds = %17
  %21 = load ptr, ptr %2, align 8, !tbaa !11
  %22 = load i32, ptr %3, align 4, !tbaa !13
  %23 = sext i32 %22 to i64
  %24 = getelementptr inbounds i16, ptr %21, i64 %23
  call void @idctSparseCol_int16_10bit(ptr noundef %24)
  br label %25

25:                                               ; preds = %20
  %26 = load i32, ptr %3, align 4, !tbaa !13
  %27 = add nsw i32 %26, 1
  store i32 %27, ptr %3, align 4, !tbaa !13
  br label %17, !llvm.loop !30

28:                                               ; preds = %17
  call void @llvm.lifetime.end.p0(i64 4, ptr %3) #4
  ret void
}