; Function Attrs: nofree norecurse nosync nounwind memory(argmem: readwrite) uwtable
define void @ff_simple_idct_int16_10bit(ptr noundef captures(none) %0) local_unnamed_addr #4 {
  br label %2

2:                                                ; preds = %1, %2
  %indvars.iv = phi i64 [ 0, %1 ], [ %indvars.iv.next, %2 ]
  %.idx = shl nuw nsw i64 %indvars.iv, 4
  %3 = getelementptr inbounds nuw i8, ptr %0, i64 %.idx
  tail call fastcc void @idctRowCondDC_int16_10bit(ptr noundef %3)
  %indvars.iv.next = add nuw nsw i64 %indvars.iv, 1
  %exitcond.not = icmp eq i64 %indvars.iv.next, 8
  br i1 %exitcond.not, label %.preheader, label %2, !llvm.loop !20

.preheader:                                       ; preds = %2, %idctSparseCol_int16_10bit.exit
  %indvars.iv10 = phi i64 [ %indvars.iv.next11, %idctSparseCol_int16_10bit.exit ], [ 0, %2 ]
  %4 = getelementptr inbounds nuw i16, ptr %0, i64 %indvars.iv10
  %5 = load i16, ptr %4, align 2, !tbaa !6
  %6 = sext i16 %5 to i32
  %7 = shl nsw i32 %6, 14
  %8 = add nsw i32 %7, 262144
  %9 = getelementptr inbounds nuw i8, ptr %4, i64 32
  %10 = load i16, ptr %9, align 2, !tbaa !6
  %11 = sext i16 %10 to i32
  %12 = mul nsw i32 %11, 21407
  %13 = add nsw i32 %8, %12
  %14 = mul nsw i32 %11, 8867
  %15 = add nsw i32 %8, %14
  %16 = mul nsw i32 %11, -8867
  %17 = add nsw i32 %8, %16
  %18 = mul nsw i32 %11, -21407
  %19 = add nsw i32 %8, %18
  %20 = getelementptr inbounds nuw i8, ptr %4, i64 16
  %21 = load i16, ptr %20, align 2, !tbaa !6
  %22 = sext i16 %21 to i32
  %23 = mul nsw i32 %22, 22725
  %24 = mul nsw i32 %22, 19265
  %25 = mul nsw i32 %22, 12873
  %26 = mul nsw i32 %22, 4520
  %27 = getelementptr inbounds nuw i8, ptr %4, i64 48
  %28 = load i16, ptr %27, align 2, !tbaa !6
  %29 = sext i16 %28 to i32
  %30 = mul nsw i32 %29, 19265
  %31 = add nsw i32 %30, %23
  %32 = mul nsw i32 %29, -4520
  %33 = add nsw i32 %32, %24
  %34 = mul nsw i32 %29, -22725
  %35 = add nsw i32 %34, %25
  %36 = mul nsw i32 %29, -12873
  %37 = add nsw i32 %36, %26
  %38 = getelementptr inbounds nuw i8, ptr %4, i64 64
  %39 = load i16, ptr %38, align 2, !tbaa !6
  %.not.i = icmp eq i16 %39, 0
  br i1 %.not.i, label %48, label %40

40:                                               ; preds = %.preheader
  %41 = sext i16 %39 to i32
  %42 = shl nsw i32 %41, 14
  %43 = add nsw i32 %42, %13
  %44 = mul nsw i32 %41, -16384
  %45 = add nsw i32 %44, %15
  %46 = add nsw i32 %44, %17
  %47 = add nsw i32 %42, %19
  br label %48

48:                                               ; preds = %40, %.preheader
  %.095.i = phi i32 [ %43, %40 ], [ %13, %.preheader ]
  %.093.i = phi i32 [ %45, %40 ], [ %15, %.preheader ]
  %.091.i = phi i32 [ %46, %40 ], [ %17, %.preheader ]
  %.089.i = phi i32 [ %47, %40 ], [ %19, %.preheader ]
  %49 = getelementptr inbounds nuw i8, ptr %4, i64 80
  %50 = load i16, ptr %49, align 2, !tbaa !6
  %.not101.i = icmp eq i16 %50, 0
  br i1 %.not101.i, label %61, label %51

51:                                               ; preds = %48
  %52 = sext i16 %50 to i32
  %53 = mul nsw i32 %52, 12873
  %54 = add nsw i32 %53, %31
  %55 = mul nsw i32 %52, -22725
  %56 = add nsw i32 %55, %33
  %57 = mul nsw i32 %52, 4520
  %58 = add nsw i32 %57, %35
  %59 = mul nsw i32 %52, 19265
  %60 = add nsw i32 %59, %37
  br label %61

61:                                               ; preds = %51, %48
  %.087.i = phi i32 [ %54, %51 ], [ %31, %48 ]
  %.085.i = phi i32 [ %56, %51 ], [ %33, %48 ]
  %.083.i = phi i32 [ %58, %51 ], [ %35, %48 ]
  %.0.i = phi i32 [ %60, %51 ], [ %37, %48 ]
  %62 = getelementptr inbounds nuw i8, ptr %4, i64 96
  %63 = load i16, ptr %62, align 2, !tbaa !6
  %.not102.i = icmp eq i16 %63, 0
  br i1 %.not102.i, label %74, label %64

64:                                               ; preds = %61
  %65 = sext i16 %63 to i32
  %66 = mul nsw i32 %65, 8867
  %67 = add nsw i32 %66, %.095.i
  %68 = mul nsw i32 %65, -21407
  %69 = add nsw i32 %68, %.093.i
  %70 = mul nsw i32 %65, 21407
  %71 = add nsw i32 %70, %.091.i
  %72 = mul nsw i32 %65, -8867
  %73 = add nsw i32 %72, %.089.i
  br label %74

74:                                               ; preds = %64, %61
  %.196.i = phi i32 [ %67, %64 ], [ %.095.i, %61 ]
  %.194.i = phi i32 [ %69, %64 ], [ %.093.i, %61 ]
  %.192.i = phi i32 [ %71, %64 ], [ %.091.i, %61 ]
  %.190.i = phi i32 [ %73, %64 ], [ %.089.i, %61 ]
  %75 = getelementptr inbounds nuw i8, ptr %4, i64 112
  %76 = load i16, ptr %75, align 2, !tbaa !6
  %.not103.i = icmp eq i16 %76, 0
  br i1 %.not103.i, label %idctSparseCol_int16_10bit.exit, label %77

77:                                               ; preds = %74
  %78 = sext i16 %76 to i32
  %79 = mul nsw i32 %78, 4520
  %80 = add nsw i32 %79, %.087.i
  %81 = mul nsw i32 %78, -12873
  %82 = add nsw i32 %81, %.085.i
  %83 = mul nsw i32 %78, 19265
  %84 = add nsw i32 %83, %.083.i
  %85 = mul nsw i32 %78, -22725
  %86 = add nsw i32 %85, %.0.i
  br label %idctSparseCol_int16_10bit.exit

idctSparseCol_int16_10bit.exit:                   ; preds = %74, %77
  %.188.i = phi i32 [ %80, %77 ], [ %.087.i, %74 ]
  %.186.i = phi i32 [ %82, %77 ], [ %.085.i, %74 ]
  %.184.i = phi i32 [ %84, %77 ], [ %.083.i, %74 ]
  %.1.i = phi i32 [ %86, %77 ], [ %.0.i, %74 ]
  %87 = add i32 %.188.i, %.196.i
  %88 = ashr i32 %87, 19
  %89 = trunc nsw i32 %88 to i16
  store i16 %89, ptr %4, align 2, !tbaa !6
  %90 = add i32 %.186.i, %.194.i
  %91 = ashr i32 %90, 19
  %92 = trunc nsw i32 %91 to i16
  store i16 %92, ptr %20, align 2, !tbaa !6
  %93 = add i32 %.184.i, %.192.i
  %94 = ashr i32 %93, 19
  %95 = trunc nsw i32 %94 to i16
  store i16 %95, ptr %9, align 2, !tbaa !6
  %96 = add i32 %.1.i, %.190.i
  %97 = ashr i32 %96, 19
  %98 = trunc nsw i32 %97 to i16
  store i16 %98, ptr %27, align 2, !tbaa !6
  %99 = sub i32 %.190.i, %.1.i
  %100 = ashr i32 %99, 19
  %101 = trunc nsw i32 %100 to i16
  store i16 %101, ptr %38, align 2, !tbaa !6
  %102 = sub i32 %.192.i, %.184.i
  %103 = ashr i32 %102, 19
  %104 = trunc nsw i32 %103 to i16
  store i16 %104, ptr %49, align 2, !tbaa !6
  %105 = sub i32 %.194.i, %.186.i
  %106 = ashr i32 %105, 19
  %107 = trunc nsw i32 %106 to i16
  store i16 %107, ptr %62, align 2, !tbaa !6
  %108 = sub i32 %.196.i, %.188.i
  %109 = ashr i32 %108, 19
  %110 = trunc nsw i32 %109 to i16
  store i16 %110, ptr %75, align 2, !tbaa !6
  %indvars.iv.next11 = add nuw nsw i64 %indvars.iv10, 1
  %exitcond13.not = icmp eq i64 %indvars.iv.next11, 8
  br i1 %exitcond13.not, label %111, label %.preheader, !llvm.loop !21

111:                                              ; preds = %idctSparseCol_int16_10bit.exit
  ret void
}